(i__main__
DFA
p0
(dp1
S'F'
p2
(dp3
sS'delta'
p4
(dp5
(I3
S'1'
p6
I0
tp7
F0.2
s(I3
S'&'
p8
I3
tp9
F0.625
s(I2
S'X'
p10
I1
tp11
F1.0
s(I2
S'0'
p12
I3
tp13
F1.0
s(I3
g8
I1
tp14
F0.375
s(I1
S'|'
p15
I1
tp16
F0.46153846153846156
s(I3
g15
I0
tp17
F0.375
s(I1
g6
I0
tp18
F0.11504424778761062
s(I0
g15
I1
tp19
F0.25
s(I4
g6
I1
tp20
F0.44
s(I1
g10
I1
tp21
F1.0
s(I4
g15
I0
tp22
F0.5
s(I0
g6
I1
tp23
F0.7142857142857143
s(I0
g10
I1
tp24
F1.0
s(I4
g12
I1
tp25
F0.56
s(I0
g12
I1
tp26
F0.2857142857142857
s(I4
g12
I3
tp27
F0.44
s(I4
g8
I3
tp28
F0.5
s(I0
g12
I3
tp29
F0.7142857142857143
s(I4
g8
I1
tp30
F0.5
s(I3
g6
I1
tp31
F0.8
s(I1
g8
I3
tp32
F0.46153846153846156
s(I2
g6
I1
tp33
F1.0
s(I1
g8
I1
tp34
F0.5384615384615384
s(I1
g12
I1
tp35
F0.11504424778761062
s(I1
g12
I3
tp36
F0.8849557522123894
s(I0
g8
I3
tp37
F0.25
s(I3
g15
I1
tp38
F0.625
s(I0
g8
I1
tp39
F0.75
s(I1
g15
I0
tp40
F0.5384615384615384
s(I1
g6
I1
tp41
F0.8849557522123894
s(I0
g15
I0
tp42
F0.75
s(I3
g10
I1
tp43
F1.0
s(I4
g6
I0
tp44
F0.56
s(I4
g15
I1
tp45
F0.5
s(I0
g6
I0
tp46
F0.2857142857142857
s(I3
g12
I3
tp47
F0.8
s(I3
g12
I1
tp48
F0.2
ssS'Q'
p49
(lp50
I0
aI1
aI2
aI3
aI4
asS'count_s1t'
p51
(dp52
(I4
g15
tp53
I26
s(I0
g10
tp54
I1
s(I1
g6
tp55
I113
s(I0
g12
tp56
I7
s(I4
g10
tp57
I0
s(I3
g15
tp58
I16
s(I3
g6
tp59
I10
s(I2
g6
tp60
I35
s(I2
g15
tp61
I0
s(I4
g6
tp62
I25
s(I2
g10
tp63
I35
s(I1
g15
tp64
I13
s(I2
g12
tp65
I35
s(I2
g8
tp66
I0
s(I3
g10
tp67
I3
s(I4
g12
tp68
I25
s(I1
g8
tp69
I13
s(I0
g15
tp70
I4
s(I4
g8
tp71
I26
s(I1
g10
tp72
I95
s(I1
g12
tp73
I113
s(I0
g8
tp74
I4
s(I0
g6
tp75
I7
s(I3
g8
tp76
I16
s(I3
g12
tp77
I10
ssS'q_0'
p78
NsS'omega'
p79
c__builtin__
set
p80
((lp81
g6
ag10
ag12
ag15
ag8
atp82
Rp83
sb.